target datalayout = "e-m:e-p270:32:32-p271:32:32-p272:64:64-i64:64-i128:128-f80:128-n8:16:32:64-S128"
target triple = "x86_64-pc-linux-gnu"

%struct.H5RS_str_t = type { ptr, ptr, i64, i64, i8, i32 }

@H5RS_init_g = global i8 0, align 1
@H5_libterm_g = external global i8, align 1
@.str = private unnamed_addr constant [98 x i8] c"generated/home/dtcxzyw/WorkSpace/Projects/compilers/llvm-opt-benchmark/bench/hdf5/hdf5/src/H5RS.c\00", align 1
@H5E_RS_g = external global i64, align 8
@H5E_CANTALLOC_g = external global i64, align 8
@.str.1 = private unnamed_addr constant [25 x i8] c"memory allocation failed\00", align 1
@H5E_CANTINIT_g = external global i64, align 8
@.str.3 = private unnamed_addr constant [36 x i8] c"can't initialize ref-counted string\00", align 1
@H5E_CANTRESIZE_g = external global i64, align 8
@.str.4 = private unnamed_addr constant [39 x i8] c"can't resize ref-counted string buffer\00", align 1
@__func__.H5RS_ancat = private unnamed_addr constant [11 x i8] c"H5RS_ancat\00", align 1
@__func__.H5RS__resize_for_append = private unnamed_addr constant [24 x i8] c"H5RS__resize_for_append\00", align 1
@H5_str_buf_blk_free_list = internal global { i8, [3 x i8], i32, i32, [4 x i8], i64, ptr, ptr } { i8 0, [3 x i8] zeroinitializer, i32 0, i32 0, [4 x i8] zeroinitializer, i64 0, ptr @.str.7, ptr null }, align 8

; Function Attrs: nounwind uwtable
define internal i32 @H5RS__resize_for_append(ptr noundef %0, i64 noundef %1) #0 {
  %3 = alloca ptr, align 8
  %4 = alloca i64, align 8
  %5 = alloca i32, align 4
  %6 = alloca i8, align 1
  store ptr %0, ptr %3, align 8, !tbaa !8
  store i64 %1, ptr %4, align 8, !tbaa !14
  call void @llvm.lifetime.start.p0(i64 4, ptr %5) #8
  store i32 0, ptr %5, align 4, !tbaa !19
  call void @llvm.lifetime.start.p0(i64 1, ptr %6) #8
  store i8 0, ptr %6, align 1, !tbaa !10
  %7 = load i8, ptr @H5RS_init_g, align 1, !tbaa !10, !range !12, !noundef !13
  %8 = trunc i8 %7 to i1
  br i1 %8, label %13, label %9

9:                                                ; preds = %2
  %10 = load i8, ptr @H5_libterm_g, align 1, !tbaa !10, !range !12, !noundef !13
  %11 = trunc i8 %10 to i1
  %12 = xor i1 %11, true
  br label %13

13:                                               ; preds = %9, %2
  %14 = phi i1 [ true, %2 ], [ %12, %9 ]
  %15 = xor i1 %14, true
  %16 = xor i1 %15, true
  %17 = zext i1 %16 to i32
  %18 = sext i32 %17 to i64
  %19 = call i64 @llvm.expect.i64(i64 %18, i64 1)
  %20 = icmp ne i64 %19, 0
  br i1 %20, label %21, label %89

21:                                               ; preds = %13
  %22 = load i64, ptr %4, align 8, !tbaa !14
  %23 = load ptr, ptr %3, align 8, !tbaa !8
  %24 = getelementptr inbounds nuw %struct.H5RS_str_t, ptr %23, i32 0, i32 3
  %25 = load i64, ptr %24, align 8, !tbaa !20
  %26 = load ptr, ptr %3, align 8, !tbaa !8
  %27 = getelementptr inbounds nuw %struct.H5RS_str_t, ptr %26, i32 0, i32 2
  %28 = load i64, ptr %27, align 8, !tbaa !26
  %29 = sub i64 %25, %28
  %30 = icmp uge i64 %22, %29
  br i1 %30, label %31, label %87

31:                                               ; preds = %21
  br label %32

32:                                               ; preds = %42, %31
  %33 = load i64, ptr %4, align 8, !tbaa !14
  %34 = load ptr, ptr %3, align 8, !tbaa !8
  %35 = getelementptr inbounds nuw %struct.H5RS_str_t, ptr %34, i32 0, i32 3
  %36 = load i64, ptr %35, align 8, !tbaa !20
  %37 = load ptr, ptr %3, align 8, !tbaa !8
  %38 = getelementptr inbounds nuw %struct.H5RS_str_t, ptr %37, i32 0, i32 2
  %39 = load i64, ptr %38, align 8, !tbaa !26
  %40 = sub i64 %36, %39
  %41 = icmp uge i64 %33, %40
  br i1 %41, label %42, label %47

42:                                               ; preds = %32
  %43 = load ptr, ptr %3, align 8, !tbaa !8
  %44 = getelementptr inbounds nuw %struct.H5RS_str_t, ptr %43, i32 0, i32 3
  %45 = load i64, ptr %44, align 8, !tbaa !20
  %46 = mul i64 %45, 2
  store i64 %46, ptr %44, align 8, !tbaa !20
  br label %32, !llvm.loop !29

47:                                               ; preds = %32
  %48 = load ptr, ptr %3, align 8, !tbaa !8
  %49 = getelementptr inbounds nuw %struct.H5RS_str_t, ptr %48, i32 0, i32 0
  %50 = load ptr, ptr %49, align 8, !tbaa !23
  %51 = load ptr, ptr %3, align 8, !tbaa !8
  %52 = getelementptr inbounds nuw %struct.H5RS_str_t, ptr %51, i32 0, i32 3
  %53 = load i64, ptr %52, align 8, !tbaa !20
  %54 = call ptr @H5FL_blk_realloc(ptr noundef @H5_str_buf_blk_free_list, ptr noundef %50, i64 noundef %53)
  %55 = load ptr, ptr %3, align 8, !tbaa !8
  %56 = getelementptr inbounds nuw %struct.H5RS_str_t, ptr %55, i32 0, i32 0
  store ptr %54, ptr %56, align 8, !tbaa !23
  %57 = icmp eq ptr null, %54
  br i1 %57, label %58, label %77

58:                                               ; preds = %47
  br label %59

59:                                               ; preds = %58
  br label %60

60:                                               ; preds = %59
  br label %61

61:                                               ; preds = %60
  %62 = load i64, ptr @H5E_RS_g, align 8, !tbaa !14
  %63 = load i64, ptr @H5E_CANTALLOC_g, align 8, !tbaa !14
  %64 = call i32 (ptr, ptr, i32, i64, i64, ptr, ...) @H5E_printf_stack(ptr noundef @.str, ptr noundef @__func__.H5RS__resize_for_append, i32 noundef 241, i64 noundef %62, i64 noundef %63, ptr noundef @.str.1)
  br label %65

65:                                               ; preds = %61
  br label %66

66:                                               ; preds = %65
  store i8 1, ptr %6, align 1, !tbaa !10
  %67 = load i8, ptr %6, align 1, !tbaa !10, !range !12, !noundef !13
  %68 = trunc i8 %67 to i1
  %69 = zext i1 %68 to i8
  store i8 %69, ptr %6, align 1, !tbaa !10
  br label %70

70:                                               ; preds = %66
  br label %71

71:                                               ; preds = %70
  br label %72

72:                                               ; preds = %71
  store i32 -1, ptr %5, align 4, !tbaa !19
  br label %88

73:                                               ; No predecessors!
  br label %74

74:                                               ; preds = %73
  br label %75

75:                                               ; preds = %74
  br label %76

76:                                               ; preds = %75
  br label %77

77:                                               ; preds = %76, %47
  %78 = load ptr, ptr %3, align 8, !tbaa !8
  %79 = getelementptr inbounds nuw %struct.H5RS_str_t, ptr %78, i32 0, i32 0
  %80 = load ptr, ptr %79, align 8, !tbaa !23
  %81 = load ptr, ptr %3, align 8, !tbaa !8
  %82 = getelementptr inbounds nuw %struct.H5RS_str_t, ptr %81, i32 0, i32 2
  %83 = load i64, ptr %82, align 8, !tbaa !26
  %84 = getelementptr inbounds nuw i8, ptr %80, i64 %83
  %85 = load ptr, ptr %3, align 8, !tbaa !8
  %86 = getelementptr inbounds nuw %struct.H5RS_str_t, ptr %85, i32 0, i32 1
  store ptr %84, ptr %86, align 8, !tbaa !24
  br label %87

87:                                               ; preds = %77, %21
  br label %88

88:                                               ; preds = %87, %72
  br label %89

89:                                               ; preds = %88, %13
  %90 = load i32, ptr %5, align 4, !tbaa !19
  call void @llvm.lifetime.end.p0(i64 1, ptr %6) #8
  call void @llvm.lifetime.end.p0(i64 4, ptr %5) #8
  ret i32 %90
}

; Function Attrs: nounwind uwtable
define i32 @H5RS_ancat(ptr noundef %0, ptr noundef %1, i64 noundef %2) #0 {
  %4 = alloca i32, align 4
  %5 = alloca ptr, align 8
  %6 = alloca ptr, align 8
  %7 = alloca i64, align 8
  %8 = alloca i32, align 4
  %9 = alloca i8, align 1
  %10 = alloca i64, align 8
  %11 = alloca i32, align 4
  store ptr %0, ptr %5, align 8, !tbaa !8
  store ptr %1, ptr %6, align 8, !tbaa !3
  store i64 %2, ptr %7, align 8, !tbaa !14
  call void @llvm.lifetime.start.p0(i64 4, ptr %8) #8
  store i32 0, ptr %8, align 4, !tbaa !19
  call void @llvm.lifetime.start.p0(i64 1, ptr %9) #8
  store i8 0, ptr %9, align 1, !tbaa !10
  %12 = load i8, ptr @H5RS_init_g, align 1, !tbaa !10, !range !12, !noundef !13
  %13 = trunc i8 %12 to i1
  br i1 %13, label %18, label %14

14:                                               ; preds = %3
  %15 = load i8, ptr @H5_libterm_g, align 1, !tbaa !10, !range !12, !noundef !13
  %16 = trunc i8 %15 to i1
  %17 = xor i1 %16, true
  br label %18

18:                                               ; preds = %14, %3
  %19 = phi i1 [ false, %3 ], [ %17, %14 ]
  %20 = xor i1 %19, true
  %21 = xor i1 %20, true
  %22 = zext i1 %21 to i32
  %23 = sext i32 %22 to i64
  %24 = call i64 @llvm.expect.i64(i64 %23, i64 0)
  %25 = icmp ne i64 %24, 0
  br i1 %25, label %26, label %27

26:                                               ; preds = %18
  store i8 1, ptr @H5RS_init_g, align 1, !tbaa !10
  br label %27

27:                                               ; preds = %26, %18
  %28 = load i8, ptr @H5RS_init_g, align 1, !tbaa !10, !range !12, !noundef !13
  %29 = trunc i8 %28 to i1
  br i1 %29, label %34, label %30

30:                                               ; preds = %27
  %31 = load i8, ptr @H5_libterm_g, align 1, !tbaa !10, !range !12, !noundef !13
  %32 = trunc i8 %31 to i1
  %33 = xor i1 %32, true
  br label %34

34:                                               ; preds = %30, %27
  %35 = phi i1 [ true, %27 ], [ %33, %30 ]
  %36 = xor i1 %35, true
  %37 = xor i1 %36, true
  %38 = zext i1 %37 to i32
  %39 = sext i32 %38 to i64
  %40 = call i64 @llvm.expect.i64(i64 %39, i64 1)
  %41 = icmp ne i64 %40, 0
  br i1 %41, label %42, label %143

42:                                               ; preds = %34
  %43 = load i64, ptr %7, align 8, !tbaa !14
  %44 = icmp ne i64 %43, 0
  br i1 %44, label %45, label %141

45:                                               ; preds = %42
  %46 = load ptr, ptr %6, align 8, !tbaa !3
  %47 = load i8, ptr %46, align 1, !tbaa !25
  %48 = sext i8 %47 to i32
  %49 = icmp ne i32 %48, 0
  br i1 %49, label %50, label %141

50:                                               ; preds = %45
  call void @llvm.lifetime.start.p0(i64 8, ptr %10) #8
  %51 = load ptr, ptr %6, align 8, !tbaa !3
  %52 = call i64 @strlen(ptr noundef %51) #9
  store i64 %52, ptr %10, align 8, !tbaa !14
  %53 = load i64, ptr %10, align 8, !tbaa !14
  %54 = load i64, ptr %7, align 8, !tbaa !14
  %55 = icmp ult i64 %53, %54
  br i1 %55, label %56, label %58

56:                                               ; preds = %50
  %57 = load i64, ptr %10, align 8, !tbaa !14
  br label %60

58:                                               ; preds = %50
  %59 = load i64, ptr %7, align 8, !tbaa !14
  br label %60

60:                                               ; preds = %58, %56
  %61 = phi i64 [ %57, %56 ], [ %59, %58 ]
  store i64 %61, ptr %7, align 8, !tbaa !14
  %62 = load ptr, ptr %5, align 8, !tbaa !8
  %63 = call i32 @H5RS__prepare_for_append(ptr noundef %62)
  %64 = icmp slt i32 %63, 0
  br i1 %64, label %65, label %84

65:                                               ; preds = %60
  br label %66

66:                                               ; preds = %65
  br label %67

67:                                               ; preds = %66
  br label %68

68:                                               ; preds = %67
  %69 = load i64, ptr @H5E_RS_g, align 8, !tbaa !14
  %70 = load i64, ptr @H5E_CANTINIT_g, align 8, !tbaa !14
  %71 = call i32 (ptr, ptr, i32, i64, i64, ptr, ...) @H5E_printf_stack(ptr noundef @.str, ptr noundef @__func__.H5RS_ancat, i32 noundef 478, i64 noundef %69, i64 noundef %70, ptr noundef @.str.3)
  br label %72

72:                                               ; preds = %68
  br label %73

73:                                               ; preds = %72
  store i8 1, ptr %9, align 1, !tbaa !10
  %74 = load i8, ptr %9, align 1, !tbaa !10, !range !12, !noundef !13
  %75 = trunc i8 %74 to i1
  %76 = zext i1 %75 to i8
  store i8 %76, ptr %9, align 1, !tbaa !10
  br label %77

77:                                               ; preds = %73
  br label %78

78:                                               ; preds = %77
  br label %79

79:                                               ; preds = %78
  store i32 -1, ptr %8, align 4, !tbaa !19
  store i32 10, ptr %11, align 4
  br label %138

80:                                               ; No predecessors!
  br label %81

81:                                               ; preds = %80
  br label %82

82:                                               ; preds = %81
  br label %83

83:                                               ; preds = %82
  br label %84

84:                                               ; preds = %83, %60
  %85 = load ptr, ptr %5, align 8, !tbaa !8
  %86 = getelementptr inbounds nuw %struct.H5RS_str_t, ptr %85, i32 0, i32 2
  %87 = load i64, ptr %86, align 8, !tbaa !26
  %88 = load i64, ptr %7, align 8, !tbaa !14
  %89 = add i64 %87, %88
  %90 = load ptr, ptr %5, align 8, !tbaa !8
  %91 = getelementptr inbounds nuw %struct.H5RS_str_t, ptr %90, i32 0, i32 3
  %92 = load i64, ptr %91, align 8, !tbaa !20
  %93 = icmp uge i64 %89, %92
  br i1 %93, label %94, label %119

94:                                               ; preds = %84
  %95 = load ptr, ptr %5, align 8, !tbaa !8
  %96 = load i64, ptr %7, align 8, !tbaa !14
  %97 = call i32 @H5RS__resize_for_append(ptr noundef %95, i64 noundef %96)
  %98 = icmp slt i32 %97, 0
  br i1 %98, label %99, label %118

99:                                               ; preds = %94
  br label %100

100:                                              ; preds = %99
  br label %101

101:                                              ; preds = %100
  br label %102

102:                                              ; preds = %101
  %103 = load i64, ptr @H5E_RS_g, align 8, !tbaa !14
  %104 = load i64, ptr @H5E_CANTRESIZE_g, align 8, !tbaa !14
  %105 = call i32 (ptr, ptr, i32, i64, i64, ptr, ...) @H5E_printf_stack(ptr noundef @.str, ptr noundef @__func__.H5RS_ancat, i32 noundef 483, i64 noundef %103, i64 noundef %104, ptr noundef @.str.4)
  br label %106

106:                                              ; preds = %102
  br label %107

107:                                              ; preds = %106
  store i8 1, ptr %9, align 1, !tbaa !10
  %108 = load i8, ptr %9, align 1, !tbaa !10, !range !12, !noundef !13
  %109 = trunc i8 %108 to i1
  %110 = zext i1 %109 to i8
  store i8 %110, ptr %9, align 1, !tbaa !10
  br label %111

111:                                              ; preds = %107
  br label %112

112:                                              ; preds = %111
  br label %113

113:                                              ; preds = %112
  store i32 -1, ptr %8, align 4, !tbaa !19
  store i32 10, ptr %11, align 4
  br label %138

114:                                              ; No predecessors!
  br label %115

115:                                              ; preds = %114
  br label %116

116:                                              ; preds = %115
  br label %117

117:                                              ; preds = %116
  br label %118

118:                                              ; preds = %117, %94
  br label %119

119:                                              ; preds = %118, %84
  %120 = load ptr, ptr %5, align 8, !tbaa !8
  %121 = getelementptr inbounds nuw %struct.H5RS_str_t, ptr %120, i32 0, i32 1
  %122 = load ptr, ptr %121, align 8, !tbaa !24
  %123 = load ptr, ptr %6, align 8, !tbaa !3
  %124 = load i64, ptr %7, align 8, !tbaa !14
  call void @llvm.memcpy.p0.p0.i64(ptr align 1 %122, ptr align 1 %123, i64 %124, i1 false)
  %125 = load i64, ptr %7, align 8, !tbaa !14
  %126 = load ptr, ptr %5, align 8, !tbaa !8
  %127 = getelementptr inbounds nuw %struct.H5RS_str_t, ptr %126, i32 0, i32 1
  %128 = load ptr, ptr %127, align 8, !tbaa !24
  %129 = getelementptr inbounds nuw i8, ptr %128, i64 %125
  store ptr %129, ptr %127, align 8, !tbaa !24
  %130 = load ptr, ptr %5, align 8, !tbaa !8
  %131 = getelementptr inbounds nuw %struct.H5RS_str_t, ptr %130, i32 0, i32 1
  %132 = load ptr, ptr %131, align 8, !tbaa !24
  store i8 0, ptr %132, align 1, !tbaa !25
  %133 = load i64, ptr %7, align 8, !tbaa !14
  %134 = load ptr, ptr %5, align 8, !tbaa !8
  %135 = getelementptr inbounds nuw %struct.H5RS_str_t, ptr %134, i32 0, i32 2
  %136 = load i64, ptr %135, align 8, !tbaa !26
  %137 = add i64 %136, %133
  store i64 %137, ptr %135, align 8, !tbaa !26
  store i32 0, ptr %11, align 4
  br label %138

138:                                              ; preds = %113, %79, %119
  call void @llvm.lifetime.end.p0(i64 8, ptr %10) #8
  %139 = load i32, ptr %11, align 4
  switch i32 %139, label %145 [
    i32 0, label %140
    i32 10, label %142
  ]

140:                                              ; preds = %138
  br label %141

141:                                              ; preds = %140, %45, %42
  br label %142

142:                                              ; preds = %141, %138
  br label %143

143:                                              ; preds = %142, %34
  %144 = load i32, ptr %8, align 4, !tbaa !19
  store i32 %144, ptr %4, align 4
  store i32 1, ptr %11, align 4
  br label %145

145:                                              ; preds = %143, %138
  call void @llvm.lifetime.end.p0(i64 1, ptr %9) #8
  call void @llvm.lifetime.end.p0(i64 4, ptr %8) #8
  %146 = load i32, ptr %4, align 4
  ret i32 %146
}