; Function Attrs: nounwind uwtable
define range(i32 -1, 1) i32 @H5RS_ancat(ptr noundef captures(none) %0, ptr noundef readonly captures(none) %1, i64 noundef %2) local_unnamed_addr #0 {
  %4 = load i8, ptr @H5RS_init_g, align 1, !tbaa !3, !range !7, !noundef !8
  %5 = trunc nuw i8 %4 to i1
  %6 = load i8, ptr @H5_libterm_g, align 1, !range !7
  %7 = trunc nuw i8 %6 to i1
  %8 = select i1 %5, i1 true, i1 %7
  br i1 %8, label %10, label %9, !prof !9

9:                                                ; preds = %3
  store i8 1, ptr @H5RS_init_g, align 1, !tbaa !3
  br label %10

10:                                               ; preds = %9, %3
  %11 = phi i8 [ 1, %9 ], [ %4, %3 ]
  %12 = trunc nuw i8 %11 to i1
  %13 = xor i1 %7, true
  %14 = select i1 %12, i1 true, i1 %13
  %15 = icmp ne i64 %2, 0
  %or.cond = and i1 %15, %14
  br i1 %or.cond, label %16, label %63, !prof !30

16:                                               ; preds = %10
  %17 = load i8, ptr %1, align 1, !tbaa !22
  %.not = icmp eq i8 %17, 0
  br i1 %.not, label %63, label %18

18:                                               ; preds = %16
  %19 = tail call i64 @strlen(ptr noundef nonnull dereferenceable(1) %1) #12
  %20 = tail call i64 @llvm.umin.i64(i64 %19, i64 %2)
  %21 = tail call fastcc i32 @H5RS__prepare_for_append(ptr noundef %0)
  %22 = icmp slt i32 %21, 0
  br i1 %22, label %23, label %27

23:                                               ; preds = %18
  %24 = load i64, ptr @H5E_RS_g, align 8, !tbaa !11
  %25 = load i64, ptr @H5E_CANTINIT_g, align 8, !tbaa !11
  %26 = tail call i32 (ptr, ptr, i32, i64, i64, ptr, ...) @H5E_printf_stack(ptr noundef nonnull @.str, ptr noundef nonnull @__func__.H5RS_ancat, i32 noundef 478, i64 noundef %24, i64 noundef %25, ptr noundef nonnull @.str.3) #11
  br label %63

27:                                               ; preds = %18
  %28 = getelementptr inbounds nuw i8, ptr %0, i64 16
  %29 = load i64, ptr %28, align 8, !tbaa !23
  %30 = add i64 %29, %20
  %31 = getelementptr inbounds nuw i8, ptr %0, i64 24
  %32 = load i64, ptr %31, align 8, !tbaa !15
  %.not29 = icmp ult i64 %30, %32
  br i1 %.not29, label %H5RS__resize_for_append.exit.thread, label %33

33:                                               ; preds = %27
  %34 = load i8, ptr @H5RS_init_g, align 1, !tbaa !3, !range !7, !noundef !8
  %35 = trunc nuw i8 %34 to i1
  %36 = load i8, ptr @H5_libterm_g, align 1, !range !7
  %37 = trunc nuw i8 %36 to i1
  %not. = xor i1 %35, true
  %.not31 = select i1 %not., i1 %37, i1 false
  %38 = sub i64 %32, %29
  %.not.i = icmp ult i64 %20, %38
  %or.cond32 = select i1 %.not31, i1 true, i1 %.not.i
  br i1 %or.cond32, label %H5RS__resize_for_append.exit.thread, label %.lr.ph.i, !prof !29

.lr.ph.i:                                         ; preds = %33, %.lr.ph.i
  %39 = phi i64 [ %40, %.lr.ph.i ], [ %32, %33 ]
  %40 = shl i64 %39, 1
  %41 = sub i64 %40, %29
  %.not15.i = icmp ult i64 %20, %41
  br i1 %.not15.i, label %42, label %.lr.ph.i, !llvm.loop !27

42:                                               ; preds = %.lr.ph.i
  store i64 %40, ptr %31, align 8, !tbaa !15
  %43 = load ptr, ptr %0, align 8, !tbaa !20
  %44 = tail call ptr @H5FL_blk_realloc(ptr noundef nonnull @H5_str_buf_blk_free_list, ptr noundef %43, i64 noundef %40) #11
  store ptr %44, ptr %0, align 8, !tbaa !20
  %45 = icmp eq ptr %44, null
  br i1 %45, label %50, label %46

46:                                               ; preds = %42
  %47 = load i64, ptr %28, align 8, !tbaa !23
  %48 = getelementptr inbounds nuw i8, ptr %44, i64 %47
  %49 = getelementptr inbounds nuw i8, ptr %0, i64 8
  store ptr %48, ptr %49, align 8, !tbaa !21
  br label %H5RS__resize_for_append.exit.thread

50:                                               ; preds = %42
  %51 = load i64, ptr @H5E_RS_g, align 8, !tbaa !11
  %52 = load i64, ptr @H5E_CANTALLOC_g, align 8, !tbaa !11
  %53 = tail call i32 (ptr, ptr, i32, i64, i64, ptr, ...) @H5E_printf_stack(ptr noundef nonnull @.str, ptr noundef nonnull @__func__.H5RS__resize_for_append, i32 noundef 241, i64 noundef %51, i64 noundef %52, ptr noundef nonnull @.str.1) #11
  %54 = load i64, ptr @H5E_RS_g, align 8, !tbaa !11
  %55 = load i64, ptr @H5E_CANTRESIZE_g, align 8, !tbaa !11
  %56 = tail call i32 (ptr, ptr, i32, i64, i64, ptr, ...) @H5E_printf_stack(ptr noundef nonnull @.str, ptr noundef nonnull @__func__.H5RS_ancat, i32 noundef 483, i64 noundef %54, i64 noundef %55, ptr noundef nonnull @.str.4) #11
  br label %63

H5RS__resize_for_append.exit.thread:              ; preds = %33, %46, %27
  %57 = getelementptr inbounds nuw i8, ptr %0, i64 8
  %58 = load ptr, ptr %57, align 8, !tbaa !21
  tail call void @llvm.memcpy.p0.p0.i64(ptr align 1 %58, ptr nonnull align 1 %1, i64 %20, i1 false)
  %59 = load ptr, ptr %57, align 8, !tbaa !21
  %60 = getelementptr inbounds nuw i8, ptr %59, i64 %20
  store ptr %60, ptr %57, align 8, !tbaa !21
  store i8 0, ptr %60, align 1, !tbaa !22
  %61 = load i64, ptr %28, align 8, !tbaa !23
  %62 = add i64 %61, %20
  store i64 %62, ptr %28, align 8, !tbaa !23
  br label %63

63:                                               ; preds = %23, %50, %H5RS__resize_for_append.exit.thread, %10, %16
  %.026 = phi i32 [ 0, %16 ], [ 0, %10 ], [ -1, %23 ], [ -1, %50 ], [ 0, %H5RS__resize_for_append.exit.thread ]
  ret i32 %.026
}